; Function Attrs: mustprogress nounwind uwtable
define dso_local ptr @LLVMDIFileGetDirectory(ptr noundef %0, ptr noundef writeonly captures(none) initializes((0, 4)) %1) local_unnamed_addr #0 {
  %3 = getelementptr inbounds i8, ptr %0, i64 -16
  %4 = load i64, ptr %3, align 8
  %5 = and i64 %4, 2
  %.not.i.i.i.i.i = icmp eq i64 %5, 0
  br i1 %.not.i.i.i.i.i, label %10, label %6

6:                                                ; preds = %2
  %7 = getelementptr inbounds i8, ptr %0, i64 -32
  %8 = load ptr, ptr %7, align 8
  %9 = tail call noundef i64 @_ZNK4llvm15SmallVectorBaseIjE4sizeEv(ptr noundef nonnull align 8 dereferenceable(16) %7) #15
  br label %_ZNK4llvm6DINode12getOperandAsINS_8MDStringEEEPT_j.exit.i.i

10:                                               ; preds = %2
  %11 = lshr i64 %4, 2
  %12 = and i64 %11, 15
  %13 = sub nsw i64 0, %12
  %14 = getelementptr inbounds %"class.llvm::MDOperand", ptr %3, i64 %13
  br label %_ZNK4llvm6DINode12getOperandAsINS_8MDStringEEEPT_j.exit.i.i

_ZNK4llvm6DINode12getOperandAsINS_8MDStringEEEPT_j.exit.i.i: ; preds = %10, %6
  %.sroa.0.0.i.i.i.i.i = phi ptr [ %14, %10 ], [ %8, %6 ]
  %15 = getelementptr inbounds nuw i8, ptr %.sroa.0.0.i.i.i.i.i, i64 8
  %16 = load ptr, ptr %15, align 8
  %.not.i.i = icmp eq ptr %16, null
  br i1 %.not.i.i, label %_ZNK4llvm6DIFile12getDirectoryEv.exit, label %17

17:                                               ; preds = %_ZNK4llvm6DINode12getOperandAsINS_8MDStringEEEPT_j.exit.i.i
  %18 = tail call { ptr, i64 } @_ZNK4llvm8MDString9getStringEv(ptr noundef nonnull align 8 dereferenceable(16) %16) #15
  %19 = extractvalue { ptr, i64 } %18, 0
  %20 = extractvalue { ptr, i64 } %18, 1
  %21 = trunc i64 %20 to i32
  br label %_ZNK4llvm6DIFile12getDirectoryEv.exit

_ZNK4llvm6DIFile12getDirectoryEv.exit:            ; preds = %_ZNK4llvm6DINode12getOperandAsINS_8MDStringEEEPT_j.exit.i.i, %17
  %.sroa.0.0.i.i = phi ptr [ %19, %17 ], [ null, %_ZNK4llvm6DINode12getOperandAsINS_8MDStringEEEPT_j.exit.i.i ]
  %.sroa.4.0.i.i = phi i32 [ %21, %17 ], [ 0, %_ZNK4llvm6DINode12getOperandAsINS_8MDStringEEEPT_j.exit.i.i ]
  store i32 %.sroa.4.0.i.i, ptr %1, align 4
  ret ptr %.sroa.0.0.i.i
}